; Function Attrs: nounwind uwtable
define dso_local ptr @PyDescr_NewMember(ptr noundef %0, ptr noundef %1) local_unnamed_addr #0 {
  %3 = getelementptr inbounds nuw i8, ptr %1, i64 24
  %4 = load i32, ptr %3, align 8, !tbaa !39
  %5 = and i32 %4, 8
  %.not = icmp eq i32 %5, 0
  br i1 %.not, label %8, label %6

6:                                                ; preds = %2
  %7 = load ptr, ptr @PyExc_SystemError, align 8, !tbaa !30
  tail call void @PyErr_SetString(ptr noundef %7, ptr noundef nonnull @.str.6) #9
  br label %descr_new.exit.thread

8:                                                ; preds = %2
  %9 = load ptr, ptr %1, align 8, !tbaa !41
  %10 = tail call ptr @PyType_GenericAlloc(ptr noundef nonnull @PyMemberDescr_Type, i64 noundef 0) #9
  %.not.i = icmp eq ptr %10, null
  br i1 %.not.i, label %descr_new.exit.thread, label %11

11:                                               ; preds = %8
  tail call void @_PyObject_SetDeferredRefcount(ptr noundef nonnull %10) #9
  %.not.i.i.i = icmp eq ptr %0, null
  br i1 %.not.i.i.i, label %_Py_XNewRef.exit.i, label %12

12:                                               ; preds = %11
  %13 = load i32, ptr %0, align 8, !tbaa !16
  %14 = icmp slt i32 %13, 0
  br i1 %14, label %_Py_XNewRef.exit.i, label %15

15:                                               ; preds = %12
  %16 = add nuw i32 %13, 1
  store i32 %16, ptr %0, align 8, !tbaa !16
  br label %_Py_XNewRef.exit.i

_Py_XNewRef.exit.i:                               ; preds = %15, %12, %11
  %17 = getelementptr inbounds nuw i8, ptr %10, i64 16
  store ptr %0, ptr %17, align 8, !tbaa !10
  %18 = tail call ptr @PyUnicode_InternFromString(ptr noundef %9) #9
  %19 = getelementptr inbounds nuw i8, ptr %10, i64 24
  store ptr %18, ptr %19, align 8, !tbaa !17
  %20 = icmp eq ptr %18, null
  br i1 %20, label %21, label %27

21:                                               ; preds = %_Py_XNewRef.exit.i
  %22 = load i32, ptr %10, align 8, !tbaa !16
  %.not.i.i = icmp sgt i32 %22, -1
  br i1 %.not.i.i, label %23, label %descr_new.exit.thread

23:                                               ; preds = %21
  %24 = add nsw i32 %22, -1
  store i32 %24, ptr %10, align 8, !tbaa !16
  %25 = icmp eq i32 %24, 0
  br i1 %25, label %26, label %descr_new.exit.thread

26:                                               ; preds = %23
  tail call void @_Py_Dealloc(ptr noundef nonnull %10) #9
  br label %descr_new.exit.thread

27:                                               ; preds = %_Py_XNewRef.exit.i
  %28 = getelementptr inbounds nuw i8, ptr %10, i64 32
  store ptr null, ptr %28, align 8, !tbaa !18
  %29 = getelementptr inbounds nuw i8, ptr %10, i64 40
  store ptr %1, ptr %29, align 8, !tbaa !37
  br label %descr_new.exit.thread

descr_new.exit.thread:                            ; preds = %26, %23, %21, %8, %27, %6
  %.0 = phi ptr [ null, %6 ], [ %10, %27 ], [ null, %8 ], [ null, %21 ], [ null, %23 ], [ null, %26 ]
  ret ptr %.0
}